#include <math.h>
#include <stdio.h>
#include <stdlib.h>
#include <string.h>

int main()
{
    int n,i;
    char x[3]="er",y[4]="ly",z[4]="ing";
    scanf("%d",&n);
    for(i=0;i<n;i++)
    {
                    char a[100],b[3],c[4];
                    scanf("%s",a);
                    int j,k;
                    for(j=strlen(a)-2,k=0;j<strlen(a),k<2;j++,k++)
                    {
                                                       b[k]=a[j];
                    }
                    b[2]=0;
                    if(strcmp(b,x)==0||strcmp(b,y)==0)
                    {
                                      for(j=0;j<strlen(a)-2;j++)
                                      printf("%c",a[j]);
                                      printf("\n");
                                      continue;
                    }
                    for(j=strlen(a)-3,k=0;j<=strlen(a)-1,k<3;j++,k++)
                    {
                                                       c[k]=a[j];
                    }
                    c[3]=0;
                      if(strcmp(c,z)==0)
                    {
                                      for(j=0;j<strlen(a)-3;j++)
                                      printf("%c",a[j]);
                                      printf("\n");
                                      continue;
                    }
    }
    return 0;
}
